; ModuleID = 'bench/openjdk/original/EPoll.ll'
source_filename = "bench/openjdk/original/EPoll.ll"
target datalayout = "e-m:e-p270:32:32-p271:32:32-p272:64:64-i64:64-i128:128-f80:128-n8:16:32:64-S128"
target triple = "x86_64-pc-linux-gnu"

%struct.epoll_event = type <{ i32, %union.epoll_data }>
%union.epoll_data = type { ptr }

@.str = private unnamed_addr constant [21 x i8] c"epoll_create1 failed\00", align 1
@.str.1 = private unnamed_addr constant [18 x i8] c"epoll_wait failed\00", align 1

; Function Attrs: mustprogress nofree norecurse nosync nounwind willreturn memory(none) uwtable
define noundef i32 @Java_sun_nio_ch_EPoll_eventSize(ptr nocapture noundef readnone %0, ptr nocapture noundef readnone %1) local_unnamed_addr #0 {
  ret i32 12
}

; Function Attrs: mustprogress nofree norecurse nosync nounwind willreturn memory(none) uwtable
define noundef i32 @Java_sun_nio_ch_EPoll_eventsOffset(ptr nocapture noundef readnone %0, ptr nocapture noundef readnone %1) local_unnamed_addr #0 {
  ret i32 0
}

; Function Attrs: mustprogress nofree norecurse nosync nounwind willreturn memory(none) uwtable
define noundef i32 @Java_sun_nio_ch_EPoll_dataOffset(ptr nocapture noundef readnone %0, ptr nocapture noundef readnone %1) local_unnamed_addr #0 {
  ret i32 4
}

; Function Attrs: nounwind uwtable
define i32 @Java_sun_nio_ch_EPoll_create(ptr noundef %0, ptr nocapture noundef readnone %1) local_unnamed_addr #1 {
  %3 = tail call i32 @epoll_create1(i32 noundef 524288) #5
  %4 = icmp slt i32 %3, 0
  br i1 %4, label %5, label %6

5:                                                ; preds = %2
  tail call void @JNU_ThrowIOExceptionWithLastError(ptr noundef %0, ptr noundef nonnull @.str) #5
  br label %6

6:                                                ; preds = %5, %2
  ret i32 %3
}

; Function Attrs: nounwind
declare i32 @epoll_create1(i32 noundef) local_unnamed_addr #2

declare void @JNU_ThrowIOExceptionWithLastError(ptr noundef, ptr noundef) local_unnamed_addr #3

; Function Attrs: nounwind uwtable
define i32 @Java_sun_nio_ch_EPoll_ctl(ptr nocapture noundef readnone %0, ptr nocapture noundef readnone %1, i32 noundef %2, i32 noundef %3, i32 noundef %4, i32 noundef %5) local_unnamed_addr #1 {
  %7 = alloca %struct.epoll_event, align 4
  store i32 %5, ptr %7, align 4
  %8 = getelementptr inbounds i8, ptr %7, i64 4
  store i32 %4, ptr %8, align 4
  %9 = call i32 @epoll_ctl(i32 noundef %2, i32 noundef %3, i32 noundef %4, ptr noundef nonnull %7) #5
  %10 = icmp eq i32 %9, 0
  br i1 %10, label %14, label %11

11:                                               ; preds = %6
  %12 = tail call ptr @__errno_location() #6
  %13 = load i32, ptr %12, align 4
  br label %14

14:                                               ; preds = %6, %11
  %15 = phi i32 [ %13, %11 ], [ 0, %6 ]
  ret i32 %15
}

; Function Attrs: nounwind
declare i32 @epoll_ctl(i32 noundef, i32 noundef, i32 noundef, ptr noundef) local_unnamed_addr #2

; Function Attrs: mustprogress nofree nosync nounwind willreturn memory(none)
declare ptr @__errno_location() local_unnamed_addr #4

; Function Attrs: nounwind uwtable
define range(i32 -5, -2147483648) i32 @Java_sun_nio_ch_EPoll_wait(ptr noundef %0, ptr nocapture noundef readnone %1, i32 noundef %2, i64 noundef %3, i32 noundef %4, i32 noundef %5) local_unnamed_addr #1 {
  %7 = inttoptr i64 %3 to ptr
  %8 = tail call i32 @epoll_wait(i32 noundef %2, ptr noundef %7, i32 noundef %4, i32 noundef %5) #5
  %9 = icmp slt i32 %8, 0
  br i1 %9, label %10, label %15

10:                                               ; preds = %6
  %11 = tail call ptr @__errno_location() #6
  %12 = load i32, ptr %11, align 4
  %13 = icmp eq i32 %12, 4
  br i1 %13, label %15, label %14

14:                                               ; preds = %10
  tail call void @JNU_ThrowIOExceptionWithLastError(ptr noundef %0, ptr noundef nonnull @.str.1) #5
  br label %15

15:                                               ; preds = %6, %10, %14
  %.0 = phi i32 [ -5, %14 ], [ -3, %10 ], [ %8, %6 ]
  ret i32 %.0
}

declare i32 @epoll_wait(i32 noundef, ptr noundef, i32 noundef, i32 noundef) local_unnamed_addr #3


!llvm.module.flags = !{!0, !1, !2, !3, !4, !5}

!0 = !{i32 7, !"Dwarf Version", i32 5}
!1 = !{i32 2, !"Debug Info Version", i32 3}
!2 = !{i32 1, !"wchar_size", i32 4}
!3 = !{i32 8, !"PIC Level", i32 2}
!4 = !{i32 7, !"uwtable", i32 2}
!5 = !{i32 7, !"frame-pointer", i32 2}
